; Function Attrs: nounwind uwtable
define i64 @Gia_ObjComputeTruthTable6(ptr noundef %0, ptr noundef %1, ptr noundef readonly captures(none) %2, ptr noundef initializes((4, 8)) %3) local_unnamed_addr #2 {
  %5 = getelementptr inbounds nuw i8, ptr %3, i64 4
  store i32 0, ptr %5, align 4, !tbaa !54
  tail call void @Gia_ManIncrementTravId(ptr noundef %0) #23
  %6 = getelementptr i8, ptr %2, i64 8
  %7 = getelementptr i8, ptr %2, i64 4
  %.val1923 = load i32, ptr %7, align 4, !tbaa !36
  %8 = icmp sgt i32 %.val1923, 0
  br i1 %8, label %.lr.ph, label %.critedge

.lr.ph:                                           ; preds = %4
  %9 = getelementptr i8, ptr %0, i64 32
  %.phi.trans.insert.i = getelementptr inbounds nuw i8, ptr %3, i64 8
  %10 = getelementptr inbounds nuw i8, ptr %0, i64 176
  %11 = getelementptr inbounds nuw i8, ptr %0, i64 616
  %.val.pre = load ptr, ptr %9, align 8, !tbaa !3
  br label %12

12:                                               ; preds = %.lr.ph, %Vec_WrdPush.exit
  %.val = phi ptr [ %.val.pre, %.lr.ph ], [ %.val.i, %Vec_WrdPush.exit ]
  %indvars.iv = phi i64 [ 0, %.lr.ph ], [ %indvars.iv.next, %Vec_WrdPush.exit ]
  %.val18 = load ptr, ptr %6, align 8, !tbaa !30
  %13 = getelementptr inbounds nuw i32, ptr %.val18, i64 %indvars.iv
  %14 = load i32, ptr %13, align 4, !tbaa !31
  %15 = sext i32 %14 to i64
  %16 = getelementptr inbounds %struct.Gia_Obj_t_, ptr %.val, i64 %15
  %.not = icmp eq ptr %.val, null
  br i1 %.not, label %.critedge, label %17

17:                                               ; preds = %12
  %.val20 = load i32, ptr %5, align 4, !tbaa !54
  %18 = getelementptr inbounds nuw i8, ptr %16, i64 8
  store i32 %.val20, ptr %18, align 4, !tbaa !52
  %19 = getelementptr inbounds nuw [6 x i64], ptr @s_Truth6, i64 0, i64 %indvars.iv
  %20 = load i64, ptr %19, align 8, !tbaa !28
  %21 = load i32, ptr %3, align 8, !tbaa !55
  %22 = icmp eq i32 %.val20, %21
  br i1 %22, label %23, label %.Vec_WrdGrow.exit10_crit_edge.i

.Vec_WrdGrow.exit10_crit_edge.i:                  ; preds = %17
  %.pre.i = load ptr, ptr %.phi.trans.insert.i, align 8, !tbaa !44
  br label %Vec_WrdPush.exit

23:                                               ; preds = %17
  %24 = icmp slt i32 %.val20, 16
  br i1 %24, label %25, label %32

25:                                               ; preds = %23
  %26 = load ptr, ptr %.phi.trans.insert.i, align 8, !tbaa !44
  %.not9.i.i = icmp eq ptr %26, null
  br i1 %.not9.i.i, label %29, label %27

27:                                               ; preds = %25
  %28 = tail call dereferenceable_or_null(128) ptr @realloc(ptr noundef nonnull %26, i64 noundef 128) #25
  br label %Vec_WrdGrow.exit.i

29:                                               ; preds = %25
  %30 = tail call noalias dereferenceable_or_null(128) ptr @malloc(i64 noundef 128) #24
  br label %Vec_WrdGrow.exit.i

Vec_WrdGrow.exit.i:                               ; preds = %29, %27
  %31 = phi ptr [ %28, %27 ], [ %30, %29 ]
  store ptr %31, ptr %.phi.trans.insert.i, align 8, !tbaa !44
  store i32 16, ptr %3, align 8, !tbaa !55
  br label %Vec_WrdPush.exit

32:                                               ; preds = %23
  %33 = shl nuw nsw i32 %.val20, 1
  %34 = load ptr, ptr %.phi.trans.insert.i, align 8, !tbaa !44
  %.not9.i9.i = icmp eq ptr %34, null
  %35 = zext nneg i32 %33 to i64
  %36 = shl nuw nsw i64 %35, 3
  br i1 %.not9.i9.i, label %39, label %37

37:                                               ; preds = %32
  %38 = tail call ptr @realloc(ptr noundef nonnull %34, i64 noundef %36) #25
  br label %41

39:                                               ; preds = %32
  %40 = tail call noalias ptr @malloc(i64 noundef %36) #24
  br label %41

41:                                               ; preds = %39, %37
  %42 = phi ptr [ %38, %37 ], [ %40, %39 ]
  store ptr %42, ptr %.phi.trans.insert.i, align 8, !tbaa !44
  store i32 %33, ptr %3, align 8, !tbaa !55
  br label %Vec_WrdPush.exit

Vec_WrdPush.exit:                                 ; preds = %.Vec_WrdGrow.exit10_crit_edge.i, %Vec_WrdGrow.exit.i, %41
  %43 = phi ptr [ %.pre.i, %.Vec_WrdGrow.exit10_crit_edge.i ], [ %42, %41 ], [ %31, %Vec_WrdGrow.exit.i ]
  %44 = load i32, ptr %5, align 4, !tbaa !54
  %45 = add nsw i32 %44, 1
  store i32 %45, ptr %5, align 4, !tbaa !54
  %46 = sext i32 %44 to i64
  %47 = getelementptr inbounds i64, ptr %43, i64 %46
  store i64 %20, ptr %47, align 8, !tbaa !28
  %48 = load i32, ptr %10, align 8, !tbaa !42
  %49 = load ptr, ptr %11, align 8, !tbaa !43
  %.val.i = load ptr, ptr %9, align 8, !tbaa !3
  %50 = ptrtoint ptr %16 to i64
  %51 = ptrtoint ptr %.val.i to i64
  %52 = sub i64 %50, %51
  %53 = sdiv exact i64 %52, 12
  %sext.i = shl i64 %53, 32
  %54 = ashr exact i64 %sext.i, 30
  %55 = getelementptr inbounds i8, ptr %49, i64 %54
  store i32 %48, ptr %55, align 4, !tbaa !31
  %indvars.iv.next = add nuw nsw i64 %indvars.iv, 1
  %.val19 = load i32, ptr %7, align 4, !tbaa !36
  %56 = sext i32 %.val19 to i64
  %57 = icmp slt i64 %indvars.iv.next, %56
  br i1 %57, label %12, label %.critedge, !llvm.loop !56

.critedge:                                        ; preds = %12, %Vec_WrdPush.exit, %4
  tail call void @Gia_ObjComputeTruthTable6_rec(ptr noundef %0, ptr noundef %1, ptr noundef nonnull %3)
  %.val21 = load i32, ptr %5, align 4, !tbaa !54
  %58 = getelementptr i8, ptr %3, i64 8
  %.val22 = load ptr, ptr %58, align 8, !tbaa !44
  %59 = sext i32 %.val21 to i64
  %60 = getelementptr i64, ptr %.val22, i64 %59
  %61 = getelementptr i8, ptr %60, i64 -8
  %62 = load i64, ptr %61, align 8, !tbaa !28
  ret i64 %62
}